target datalayout = "e-m:e-p270:32:32-p271:32:32-p272:64:64-i64:64-i128:128-f80:128-n8:16:32:64-S128"
target triple = "x86_64-pc-linux-gnu"

%struct.AVFilterContext = type { ptr, ptr, ptr, ptr, ptr, i32, ptr, ptr, i32, ptr, ptr, i32, i32, ptr, ptr, ptr, ptr, i32, ptr, i32, i32 }
%struct.AudioEchoContext = type { ptr, float, float, ptr, ptr, ptr, ptr, i32, i32, ptr, i32, i32, ptr, i32, i64, ptr }

@.str.17 = private unnamed_addr constant [31 x i8] c"Missing delays and/or decays.\0A\00", align 1
@.str.18 = private unnamed_addr constant [55 x i8] c"Number of delays %d differs from number of decays %d.\0A\00", align 1
@.str.19 = private unnamed_addr constant [41 x i8] c"At least one decay & delay must be set.\0A\00", align 1
@.str.20 = private unnamed_addr constant [51 x i8] c"delay[%d]: %f is out of allowed range: (0, 90000]\0A\00", align 1
@.str.21 = private unnamed_addr constant [47 x i8] c"decay[%d]: %f is out of allowed range: (0, 1]\0A\00", align 1
@.str.22 = private unnamed_addr constant [14 x i8] c"nb_echoes:%d\0A\00", align 1

; Function Attrs: nounwind uwtable
define internal void @count_items(ptr noundef %0, ptr noundef %1) #1 {
  %3 = alloca ptr, align 8
  %4 = alloca ptr, align 8
  %5 = alloca ptr, align 8
  store ptr %0, ptr %3, align 8, !tbaa !69
  store ptr %1, ptr %4, align 8, !tbaa !86
  call void @llvm.lifetime.start.p0(i64 8, ptr %5) #8
  %6 = load ptr, ptr %4, align 8, !tbaa !86
  store i32 1, ptr %6, align 4, !tbaa !33
  %7 = load ptr, ptr %3, align 8, !tbaa !69
  store ptr %7, ptr %5, align 8, !tbaa !69
  br label %8

8:                                                ; preds = %22, %2
  %9 = load ptr, ptr %5, align 8, !tbaa !69
  %10 = load i8, ptr %9, align 1, !tbaa !90
  %11 = icmp ne i8 %10, 0
  br i1 %11, label %12, label %25

12:                                               ; preds = %8
  %13 = load ptr, ptr %5, align 8, !tbaa !69
  %14 = load i8, ptr %13, align 1, !tbaa !90
  %15 = sext i8 %14 to i32
  %16 = icmp eq i32 %15, 124
  br i1 %16, label %17, label %21

17:                                               ; preds = %12
  %18 = load ptr, ptr %4, align 8, !tbaa !86
  %19 = load i32, ptr %18, align 4, !tbaa !33
  %20 = add nsw i32 %19, 1
  store i32 %20, ptr %18, align 4, !tbaa !33
  br label %21

21:                                               ; preds = %17, %12
  br label %22

22:                                               ; preds = %21
  %23 = load ptr, ptr %5, align 8, !tbaa !69
  %24 = getelementptr inbounds nuw i8, ptr %23, i32 1
  store ptr %24, ptr %5, align 8, !tbaa !69
  br label %8, !llvm.loop !91

25:                                               ; preds = %8
  call void @llvm.lifetime.end.p0(i64 8, ptr %5) #8
  ret void
}

; Function Attrs: cold nounwind optsize uwtable
define internal i32 @init(ptr noundef %0) #0 {
  %2 = alloca i32, align 4
  %3 = alloca ptr, align 8
  %4 = alloca ptr, align 8
  %5 = alloca i32, align 4
  %6 = alloca i32, align 4
  %7 = alloca i32, align 4
  %8 = alloca i32, align 4
  store ptr %0, ptr %3, align 8, !tbaa !4
  call void @llvm.lifetime.start.p0(i64 8, ptr %4) #8
  %9 = load ptr, ptr %3, align 8, !tbaa !4
  %10 = getelementptr inbounds nuw %struct.AVFilterContext, ptr %9, i32 0, i32 9
  %11 = load ptr, ptr %10, align 8, !tbaa !9
  store ptr %11, ptr %4, align 8, !tbaa !22
  call void @llvm.lifetime.start.p0(i64 4, ptr %5) #8
  call void @llvm.lifetime.start.p0(i64 4, ptr %6) #8
  call void @llvm.lifetime.start.p0(i64 4, ptr %7) #8
  %12 = load ptr, ptr %4, align 8, !tbaa !22
  %13 = getelementptr inbounds nuw %struct.AudioEchoContext, ptr %12, i32 0, i32 3
  %14 = load ptr, ptr %13, align 8, !tbaa !24
  %15 = icmp ne ptr %14, null
  br i1 %15, label %16, label %21

16:                                               ; preds = %1
  %17 = load ptr, ptr %4, align 8, !tbaa !22
  %18 = getelementptr inbounds nuw %struct.AudioEchoContext, ptr %17, i32 0, i32 4
  %19 = load ptr, ptr %18, align 8, !tbaa !31
  %20 = icmp ne ptr %19, null
  br i1 %20, label %23, label %21

21:                                               ; preds = %16, %1
  %22 = load ptr, ptr %3, align 8, !tbaa !4
  call void (ptr, i32, ptr, ...) @av_log(ptr noundef %22, i32 noundef 16, ptr noundef @.str.17)
  store i32 -22, ptr %2, align 4
  store i32 1, ptr %8, align 4
  br label %174

23:                                               ; preds = %16
  %24 = load ptr, ptr %4, align 8, !tbaa !22
  %25 = getelementptr inbounds nuw %struct.AudioEchoContext, ptr %24, i32 0, i32 3
  %26 = load ptr, ptr %25, align 8, !tbaa !24
  call void @count_items(ptr noundef %26, ptr noundef %5)
  %27 = load ptr, ptr %4, align 8, !tbaa !22
  %28 = getelementptr inbounds nuw %struct.AudioEchoContext, ptr %27, i32 0, i32 4
  %29 = load ptr, ptr %28, align 8, !tbaa !31
  call void @count_items(ptr noundef %29, ptr noundef %6)
  %30 = load ptr, ptr %4, align 8, !tbaa !22
  %31 = getelementptr inbounds nuw %struct.AudioEchoContext, ptr %30, i32 0, i32 5
  %32 = load ptr, ptr %31, align 8, !tbaa !32
  %33 = load i32, ptr %5, align 4, !tbaa !33
  %34 = sext i32 %33 to i64
  %35 = call ptr @av_realloc_f(ptr noundef %32, i64 noundef %34, i64 noundef 4)
  %36 = load ptr, ptr %4, align 8, !tbaa !22
  %37 = getelementptr inbounds nuw %struct.AudioEchoContext, ptr %36, i32 0, i32 5
  store ptr %35, ptr %37, align 8, !tbaa !32
  %38 = load ptr, ptr %4, align 8, !tbaa !22
  %39 = getelementptr inbounds nuw %struct.AudioEchoContext, ptr %38, i32 0, i32 6
  %40 = load ptr, ptr %39, align 8, !tbaa !34
  %41 = load i32, ptr %6, align 4, !tbaa !33
  %42 = sext i32 %41 to i64
  %43 = call ptr @av_realloc_f(ptr noundef %40, i64 noundef %42, i64 noundef 4)
  %44 = load ptr, ptr %4, align 8, !tbaa !22
  %45 = getelementptr inbounds nuw %struct.AudioEchoContext, ptr %44, i32 0, i32 6
  store ptr %43, ptr %45, align 8, !tbaa !34
  %46 = load ptr, ptr %4, align 8, !tbaa !22
  %47 = getelementptr inbounds nuw %struct.AudioEchoContext, ptr %46, i32 0, i32 5
  %48 = load ptr, ptr %47, align 8, !tbaa !32
  %49 = icmp ne ptr %48, null
  br i1 %49, label %50, label %55

50:                                               ; preds = %23
  %51 = load ptr, ptr %4, align 8, !tbaa !22
  %52 = getelementptr inbounds nuw %struct.AudioEchoContext, ptr %51, i32 0, i32 6
  %53 = load ptr, ptr %52, align 8, !tbaa !34
  %54 = icmp ne ptr %53, null
  br i1 %54, label %56, label %55

55:                                               ; preds = %50, %23
  store i32 -12, ptr %2, align 4
  store i32 1, ptr %8, align 4
  br label %174

56:                                               ; preds = %50
  %57 = load ptr, ptr %4, align 8, !tbaa !22
  %58 = getelementptr inbounds nuw %struct.AudioEchoContext, ptr %57, i32 0, i32 3
  %59 = load ptr, ptr %58, align 8, !tbaa !24
  %60 = load ptr, ptr %4, align 8, !tbaa !22
  %61 = getelementptr inbounds nuw %struct.AudioEchoContext, ptr %60, i32 0, i32 5
  %62 = load ptr, ptr %61, align 8, !tbaa !32
  call void @fill_items(ptr noundef %59, ptr noundef %5, ptr noundef %62)
  %63 = load ptr, ptr %4, align 8, !tbaa !22
  %64 = getelementptr inbounds nuw %struct.AudioEchoContext, ptr %63, i32 0, i32 4
  %65 = load ptr, ptr %64, align 8, !tbaa !31
  %66 = load ptr, ptr %4, align 8, !tbaa !22
  %67 = getelementptr inbounds nuw %struct.AudioEchoContext, ptr %66, i32 0, i32 6
  %68 = load ptr, ptr %67, align 8, !tbaa !34
  call void @fill_items(ptr noundef %65, ptr noundef %6, ptr noundef %68)
  %69 = load i32, ptr %5, align 4, !tbaa !33
  %70 = load i32, ptr %6, align 4, !tbaa !33
  %71 = icmp ne i32 %69, %70
  br i1 %71, label %72, label %76

72:                                               ; preds = %56
  %73 = load ptr, ptr %3, align 8, !tbaa !4
  %74 = load i32, ptr %5, align 4, !tbaa !33
  %75 = load i32, ptr %6, align 4, !tbaa !33
  call void (ptr, i32, ptr, ...) @av_log(ptr noundef %73, i32 noundef 16, ptr noundef @.str.18, i32 noundef %74, i32 noundef %75)
  store i32 -22, ptr %2, align 4
  store i32 1, ptr %8, align 4
  br label %174

76:                                               ; preds = %56
  %77 = load i32, ptr %5, align 4, !tbaa !33
  %78 = load ptr, ptr %4, align 8, !tbaa !22
  %79 = getelementptr inbounds nuw %struct.AudioEchoContext, ptr %78, i32 0, i32 7
  store i32 %77, ptr %79, align 8, !tbaa !35
  %80 = load ptr, ptr %4, align 8, !tbaa !22
  %81 = getelementptr inbounds nuw %struct.AudioEchoContext, ptr %80, i32 0, i32 7
  %82 = load i32, ptr %81, align 8, !tbaa !35
  %83 = icmp ne i32 %82, 0
  br i1 %83, label %86, label %84

84:                                               ; preds = %76
  %85 = load ptr, ptr %3, align 8, !tbaa !4
  call void (ptr, i32, ptr, ...) @av_log(ptr noundef %85, i32 noundef 16, ptr noundef @.str.19)
  store i32 -22, ptr %2, align 4
  store i32 1, ptr %8, align 4
  br label %174

86:                                               ; preds = %76
  %87 = load ptr, ptr %4, align 8, !tbaa !22
  %88 = getelementptr inbounds nuw %struct.AudioEchoContext, ptr %87, i32 0, i32 12
  %89 = load ptr, ptr %88, align 8, !tbaa !36
  %90 = load i32, ptr %5, align 4, !tbaa !33
  %91 = sext i32 %90 to i64
  %92 = call ptr @av_realloc_f(ptr noundef %89, i64 noundef %91, i64 noundef 4)
  %93 = load ptr, ptr %4, align 8, !tbaa !22
  %94 = getelementptr inbounds nuw %struct.AudioEchoContext, ptr %93, i32 0, i32 12
  store ptr %92, ptr %94, align 8, !tbaa !36
  %95 = load ptr, ptr %4, align 8, !tbaa !22
  %96 = getelementptr inbounds nuw %struct.AudioEchoContext, ptr %95, i32 0, i32 12
  %97 = load ptr, ptr %96, align 8, !tbaa !36
  %98 = icmp ne ptr %97, null
  br i1 %98, label %100, label %99

99:                                               ; preds = %86
  store i32 -12, ptr %2, align 4
  store i32 1, ptr %8, align 4
  br label %174

100:                                              ; preds = %86
  store i32 0, ptr %7, align 4, !tbaa !33
  br label %101

101:                                              ; preds = %164, %100
  %102 = load i32, ptr %7, align 4, !tbaa !33
  %103 = load i32, ptr %5, align 4, !tbaa !33
  %104 = icmp slt i32 %102, %103
  br i1 %104, label %105, label %167

105:                                              ; preds = %101
  %106 = load ptr, ptr %4, align 8, !tbaa !22
  %107 = getelementptr inbounds nuw %struct.AudioEchoContext, ptr %106, i32 0, i32 5
  %108 = load ptr, ptr %107, align 8, !tbaa !32
  %109 = load i32, ptr %7, align 4, !tbaa !33
  %110 = sext i32 %109 to i64
  %111 = getelementptr inbounds float, ptr %108, i64 %110
  %112 = load float, ptr %111, align 4, !tbaa !37
  %113 = fcmp nsz ole float %112, 0.000000e+00
  br i1 %113, label %123, label %114

114:                                              ; preds = %105
  %115 = load ptr, ptr %4, align 8, !tbaa !22
  %116 = getelementptr inbounds nuw %struct.AudioEchoContext, ptr %115, i32 0, i32 5
  %117 = load ptr, ptr %116, align 8, !tbaa !32
  %118 = load i32, ptr %7, align 4, !tbaa !33
  %119 = sext i32 %118 to i64
  %120 = getelementptr inbounds float, ptr %117, i64 %119
  %121 = load float, ptr %120, align 4, !tbaa !37
  %122 = fcmp nsz ogt float %121, 9.000000e+04
  br i1 %122, label %123, label %134

123:                                              ; preds = %114, %105
  %124 = load ptr, ptr %3, align 8, !tbaa !4
  %125 = load i32, ptr %7, align 4, !tbaa !33
  %126 = load ptr, ptr %4, align 8, !tbaa !22
  %127 = getelementptr inbounds nuw %struct.AudioEchoContext, ptr %126, i32 0, i32 5
  %128 = load ptr, ptr %127, align 8, !tbaa !32
  %129 = load i32, ptr %7, align 4, !tbaa !33
  %130 = sext i32 %129 to i64
  %131 = getelementptr inbounds float, ptr %128, i64 %130
  %132 = load float, ptr %131, align 4, !tbaa !37
  %133 = fpext nsz float %132 to double
  call void (ptr, i32, ptr, ...) @av_log(ptr noundef %124, i32 noundef 16, ptr noundef @.str.20, i32 noundef %125, double noundef %133)
  store i32 -22, ptr %2, align 4
  store i32 1, ptr %8, align 4
  br label %174

134:                                              ; preds = %114
  %135 = load ptr, ptr %4, align 8, !tbaa !22
  %136 = getelementptr inbounds nuw %struct.AudioEchoContext, ptr %135, i32 0, i32 6
  %137 = load ptr, ptr %136, align 8, !tbaa !34
  %138 = load i32, ptr %7, align 4, !tbaa !33
  %139 = sext i32 %138 to i64
  %140 = getelementptr inbounds float, ptr %137, i64 %139
  %141 = load float, ptr %140, align 4, !tbaa !37
  %142 = fcmp nsz ole float %141, 0.000000e+00
  br i1 %142, label %152, label %143

143:                                              ; preds = %134
  %144 = load ptr, ptr %4, align 8, !tbaa !22
  %145 = getelementptr inbounds nuw %struct.AudioEchoContext, ptr %144, i32 0, i32 6
  %146 = load ptr, ptr %145, align 8, !tbaa !34
  %147 = load i32, ptr %7, align 4, !tbaa !33
  %148 = sext i32 %147 to i64
  %149 = getelementptr inbounds float, ptr %146, i64 %148
  %150 = load float, ptr %149, align 4, !tbaa !37
  %151 = fcmp nsz ogt float %150, 1.000000e+00
  br i1 %151, label %152, label %163

152:                                              ; preds = %143, %134
  %153 = load ptr, ptr %3, align 8, !tbaa !4
  %154 = load i32, ptr %7, align 4, !tbaa !33
  %155 = load ptr, ptr %4, align 8, !tbaa !22
  %156 = getelementptr inbounds nuw %struct.AudioEchoContext, ptr %155, i32 0, i32 6
  %157 = load ptr, ptr %156, align 8, !tbaa !34
  %158 = load i32, ptr %7, align 4, !tbaa !33
  %159 = sext i32 %158 to i64
  %160 = getelementptr inbounds float, ptr %157, i64 %159
  %161 = load float, ptr %160, align 4, !tbaa !37
  %162 = fpext nsz float %161 to double
  call void (ptr, i32, ptr, ...) @av_log(ptr noundef %153, i32 noundef 16, ptr noundef @.str.21, i32 noundef %154, double noundef %162)
  store i32 -22, ptr %2, align 4
  store i32 1, ptr %8, align 4
  br label %174

163:                                              ; preds = %143
  br label %164

164:                                              ; preds = %163
  %165 = load i32, ptr %7, align 4, !tbaa !33
  %166 = add nsw i32 %165, 1
  store i32 %166, ptr %7, align 4, !tbaa !33
  br label %101, !llvm.loop !38

167:                                              ; preds = %101
  %168 = load ptr, ptr %4, align 8, !tbaa !22
  %169 = getelementptr inbounds nuw %struct.AudioEchoContext, ptr %168, i32 0, i32 14
  store i64 -9223372036854775808, ptr %169, align 8, !tbaa !40
  %170 = load ptr, ptr %3, align 8, !tbaa !4
  %171 = load ptr, ptr %4, align 8, !tbaa !22
  %172 = getelementptr inbounds nuw %struct.AudioEchoContext, ptr %171, i32 0, i32 7
  %173 = load i32, ptr %172, align 8, !tbaa !35
  call void (ptr, i32, ptr, ...) @av_log(ptr noundef %170, i32 noundef 48, ptr noundef @.str.22, i32 noundef %173)
  store i32 0, ptr %2, align 4
  store i32 1, ptr %8, align 4
  br label %174

174:                                              ; preds = %167, %152, %123, %99, %84, %72, %55, %21
  call void @llvm.lifetime.end.p0(i64 4, ptr %7) #8
  call void @llvm.lifetime.end.p0(i64 4, ptr %6) #8
  call void @llvm.lifetime.end.p0(i64 4, ptr %5) #8
  call void @llvm.lifetime.end.p0(i64 8, ptr %4) #8
  %175 = load i32, ptr %2, align 4
  ret i32 %175
}