; Function Attrs: cold nounwind optsize uwtable
define internal range(i32 -22, 1) i32 @init(ptr noundef %0) #0 {
  %2 = alloca i32, align 4
  %3 = alloca i32, align 4
  %4 = getelementptr inbounds nuw i8, ptr %0, i64 72
  %5 = load ptr, ptr %4, align 8, !tbaa !4
  call void @llvm.lifetime.start.p0(i64 4, ptr nonnull %2) #8
  call void @llvm.lifetime.start.p0(i64 4, ptr nonnull %3) #8
  %6 = getelementptr inbounds nuw i8, ptr %5, i64 16
  %7 = load ptr, ptr %6, align 8, !tbaa !20
  %.not = icmp eq ptr %7, null
  br i1 %.not, label %11, label %8

8:                                                ; preds = %1
  %9 = getelementptr inbounds nuw i8, ptr %5, i64 24
  %10 = load ptr, ptr %9, align 8, !tbaa !27
  %.not51 = icmp eq ptr %10, null
  br i1 %.not51, label %11, label %.preheader86

11:                                               ; preds = %8, %1
  tail call void (ptr, i32, ptr, ...) @av_log(ptr noundef nonnull %0, i32 noundef 16, ptr noundef nonnull @.str.17) #8
  br label %77

.preheader86:                                     ; preds = %8, %17
  %12 = phi i32 [ %18, %17 ], [ 1, %8 ]
  %13 = phi i32 [ %19, %17 ], [ 1, %8 ]
  %.0.i = phi ptr [ %20, %17 ], [ %7, %8 ]
  %14 = load i8, ptr %.0.i, align 1, !tbaa !28
  switch i8 %14, label %17 [
    i8 0, label %count_items.exit
    i8 124, label %15
  ]

15:                                               ; preds = %.preheader86
  %16 = add nsw i32 %13, 1
  br label %17

17:                                               ; preds = %15, %.preheader86
  %18 = phi i32 [ %12, %.preheader86 ], [ %16, %15 ]
  %19 = phi i32 [ %13, %.preheader86 ], [ %16, %15 ]
  %20 = getelementptr inbounds nuw i8, ptr %.0.i, i64 1
  br label %.preheader86, !llvm.loop !29

count_items.exit:                                 ; preds = %.preheader86
  store i32 %12, ptr %2, align 4
  br label %21

21:                                               ; preds = %27, %count_items.exit
  %22 = phi i32 [ 1, %count_items.exit ], [ %28, %27 ]
  %23 = phi i32 [ 1, %count_items.exit ], [ %29, %27 ]
  %.0.i59 = phi ptr [ %10, %count_items.exit ], [ %30, %27 ]
  %24 = load i8, ptr %.0.i59, align 1, !tbaa !28
  switch i8 %24, label %27 [
    i8 0, label %count_items.exit60
    i8 124, label %25
  ]

25:                                               ; preds = %21
  %26 = add nsw i32 %23, 1
  br label %27

27:                                               ; preds = %25, %21
  %28 = phi i32 [ %22, %21 ], [ %26, %25 ]
  %29 = phi i32 [ %23, %21 ], [ %26, %25 ]
  %30 = getelementptr inbounds nuw i8, ptr %.0.i59, i64 1
  br label %21, !llvm.loop !29

count_items.exit60:                               ; preds = %21
  store i32 %22, ptr %3, align 4
  %31 = getelementptr inbounds nuw i8, ptr %5, i64 32
  %32 = load ptr, ptr %31, align 8, !tbaa !31
  %33 = sext i32 %12 to i64
  %34 = tail call ptr @av_realloc_f(ptr noundef %32, i64 noundef %33, i64 noundef 4) #8
  store ptr %34, ptr %31, align 8, !tbaa !31
  %35 = getelementptr inbounds nuw i8, ptr %5, i64 40
  %36 = load ptr, ptr %35, align 8, !tbaa !32
  %37 = sext i32 %22 to i64
  %38 = tail call ptr @av_realloc_f(ptr noundef %36, i64 noundef %37, i64 noundef 4) #8
  store ptr %38, ptr %35, align 8, !tbaa !32
  %39 = load ptr, ptr %31, align 8, !tbaa !31
  %.not52 = icmp eq ptr %39, null
  %.not53 = icmp eq ptr %38, null
  %or.cond = select i1 %.not52, i1 true, i1 %.not53
  br i1 %or.cond, label %77, label %40

40:                                               ; preds = %count_items.exit60
  %41 = load ptr, ptr %6, align 8, !tbaa !20
  call fastcc void @fill_items(ptr noundef %41, ptr noundef %2, ptr noundef nonnull %39)
  %42 = load ptr, ptr %9, align 8, !tbaa !27
  %43 = load ptr, ptr %35, align 8, !tbaa !32
  call fastcc void @fill_items(ptr noundef %42, ptr noundef %3, ptr noundef %43)
  %44 = load i32, ptr %2, align 4, !tbaa !33
  %45 = load i32, ptr %3, align 4, !tbaa !33
  %.not54 = icmp eq i32 %44, %45
  br i1 %.not54, label %47, label %46

46:                                               ; preds = %40
  tail call void (ptr, i32, ptr, ...) @av_log(ptr noundef %0, i32 noundef 16, ptr noundef nonnull @.str.18, i32 noundef %44, i32 noundef %45) #8
  br label %77

47:                                               ; preds = %40
  %48 = getelementptr inbounds nuw i8, ptr %5, i64 48
  store i32 %44, ptr %48, align 8, !tbaa !34
  %.not55 = icmp eq i32 %44, 0
  br i1 %.not55, label %49, label %50

49:                                               ; preds = %47
  tail call void (ptr, i32, ptr, ...) @av_log(ptr noundef %0, i32 noundef 16, ptr noundef nonnull @.str.19) #8
  br label %77

50:                                               ; preds = %47
  %51 = getelementptr inbounds nuw i8, ptr %5, i64 72
  %52 = load ptr, ptr %51, align 8, !tbaa !35
  %53 = sext i32 %44 to i64
  %54 = tail call ptr @av_realloc_f(ptr noundef %52, i64 noundef %53, i64 noundef 4) #8
  store ptr %54, ptr %51, align 8, !tbaa !35
  %.not56 = icmp eq ptr %54, null
  br i1 %.not56, label %77, label %.preheader

.preheader:                                       ; preds = %50
  %55 = icmp sgt i32 %44, 0
  br i1 %55, label %.lr.ph, label %._crit_edge

.lr.ph:                                           ; preds = %.preheader
  %56 = load ptr, ptr %31, align 8, !tbaa !31
  %wide.trip.count = zext nneg i32 %44 to i64
  br label %57

57:                                               ; preds = %.lr.ph, %74
  %indvars.iv = phi i64 [ 0, %.lr.ph ], [ %indvars.iv.next, %74 ]
  %58 = getelementptr inbounds nuw float, ptr %56, i64 %indvars.iv
  %59 = load float, ptr %58, align 4, !tbaa !36
  %60 = fcmp nsz ole float %59, 0.000000e+00
  %61 = fcmp nsz ogt float %59, 9.000000e+04
  %or.cond57 = or i1 %60, %61
  br i1 %or.cond57, label %62, label %65

62:                                               ; preds = %57
  %63 = trunc nuw nsw i64 %indvars.iv to i32
  %64 = fpext nsz float %59 to double
  tail call void (ptr, i32, ptr, ...) @av_log(ptr noundef %0, i32 noundef 16, ptr noundef nonnull @.str.20, i32 noundef %63, double noundef %64) #8
  br label %77

65:                                               ; preds = %57
  %66 = load ptr, ptr %35, align 8, !tbaa !32
  %67 = getelementptr inbounds nuw float, ptr %66, i64 %indvars.iv
  %68 = load float, ptr %67, align 4, !tbaa !36
  %69 = fcmp nsz ole float %68, 0.000000e+00
  %70 = fcmp nsz ogt float %68, 1.000000e+00
  %or.cond58 = or i1 %69, %70
  br i1 %or.cond58, label %71, label %74

71:                                               ; preds = %65
  %72 = trunc nuw nsw i64 %indvars.iv to i32
  %73 = fpext nsz float %68 to double
  tail call void (ptr, i32, ptr, ...) @av_log(ptr noundef %0, i32 noundef 16, ptr noundef nonnull @.str.21, i32 noundef %72, double noundef %73) #8
  br label %77

74:                                               ; preds = %65
  %indvars.iv.next = add nuw nsw i64 %indvars.iv, 1
  %exitcond.not = icmp eq i64 %indvars.iv.next, %wide.trip.count
  br i1 %exitcond.not, label %._crit_edge, label %57, !llvm.loop !37

._crit_edge:                                      ; preds = %74, %.preheader
  %75 = getelementptr inbounds nuw i8, ptr %5, i64 88
  store i64 -9223372036854775808, ptr %75, align 8, !tbaa !38
  %76 = load i32, ptr %48, align 8, !tbaa !34
  tail call void (ptr, i32, ptr, ...) @av_log(ptr noundef %0, i32 noundef 48, ptr noundef nonnull @.str.22, i32 noundef %76) #8
  br label %77

77:                                               ; preds = %50, %count_items.exit60, %._crit_edge, %71, %62, %49, %46, %11
  %.044 = phi i32 [ -22, %46 ], [ -22, %62 ], [ -22, %71 ], [ 0, %._crit_edge ], [ -22, %49 ], [ -22, %11 ], [ -12, %count_items.exit60 ], [ -12, %50 ]
  call void @llvm.lifetime.end.p0(i64 4, ptr nonnull %3) #8
  call void @llvm.lifetime.end.p0(i64 4, ptr nonnull %2) #8
  ret i32 %.044
}